target datalayout = "e-m:e-p270:32:32-p271:32:32-p272:64:64-i64:64-i128:128-f80:128-n8:16:32:64-S128"
target triple = "x86_64-pc-linux-gnu"

%struct.slurm_conf_t = type { i64, ptr, i16, ptr, ptr, ptr, ptr, ptr, i16, ptr, ptr, ptr, ptr, ptr, ptr, ptr, i16, ptr, ptr, ptr, ptr, i16, ptr, ptr, ptr, i64, ptr, ptr, ptr, ptr, i16, ptr, ptr, i16, i32, ptr, i32, ptr, i32, i32, ptr, ptr, i64, i64, ptr, i16, i16, ptr, i32, i32, ptr, i32, ptr, i32, i16, i16, i16, ptr, i16, i16, ptr, ptr, i32, i16, i16, ptr, i32, i16, ptr, ptr, ptr, ptr, i16, ptr, ptr, ptr, ptr, i32, ptr, ptr, ptr, ptr, i16, i16, ptr, i32, i32, i32, i16, i16, ptr, ptr, i16, ptr, ptr, i32, i32, i32, i32, i32, i64, i32, i32, i16, ptr, ptr, i32, ptr, ptr, ptr, i16, i32, ptr, ptr, i16, ptr, ptr, i32, i16, ptr, ptr, ptr, ptr, i32, i32, i16, i16, i32, ptr, i16, ptr, i32, i32, i32, i32, i32, i32, ptr, i16, ptr, ptr, i32, i16, ptr, i32, i16, i16, ptr, ptr, ptr, i16, ptr, ptr, ptr, ptr, i16, i16, ptr, i16, ptr, i16, ptr, i16, ptr, i16, ptr, ptr, ptr, ptr, i16, ptr, ptr, ptr, i32, ptr, i32, ptr, ptr, i16, ptr, ptr, i32, i16, ptr, ptr, i16, i16, ptr, i16, ptr, ptr, ptr, i32, ptr, i16, i16, ptr, ptr, ptr, ptr, ptr, ptr, ptr, ptr, i16, i32, i16, ptr, ptr, ptr, ptr, i32, ptr, ptr, ptr, i16, ptr, ptr, ptr, i16, ptr, i16, ptr, i16, i16, ptr }
%struct.slurm_msg = type { %struct.sockaddr_storage, ptr, i32, i32, i32, i8, i32, i8, i32, ptr, ptr, i32, ptr, ptr, i16, i8, i16, i16, %struct.forward, ptr, %struct.sockaddr_storage, ptr }
%struct.forward = type { %struct.slurm_node_alias_addrs_t, i16, i16, ptr, i32, i16, i16 }
%struct.slurm_node_alias_addrs_t = type { i64, ptr, ptr, i32, ptr }
%struct.sockaddr_storage = type { i16, [118 x i8], i64 }
%struct.shutdown_msg = type { i16 }

@working_cluster_rec = external global ptr, align 8
@slurm_conf = external global %struct.slurm_conf_t, align 8

; Function Attrs: nounwind uwtable
define dso_local i32 @slurm_shutdown(i16 noundef zeroext %0) #0 {
  %2 = alloca i16, align 2
  %3 = alloca %struct.slurm_msg, align 8
  %4 = alloca %struct.shutdown_msg, align 2
  %5 = alloca i32, align 4
  store i16 %0, ptr %2, align 2
  call void @llvm.lifetime.start.p0(i64 424, ptr %3) #6
  call void @llvm.lifetime.start.p0(i64 2, ptr %4) #6
  call void @llvm.lifetime.start.p0(i64 4, ptr %5) #6
  call void @slurm_msg_t_init(ptr noundef %3)
  %6 = load i16, ptr %2, align 2
  %7 = getelementptr inbounds nuw %struct.shutdown_msg, ptr %4, i32 0, i32 0
  store i16 %6, ptr %7, align 2
  %8 = getelementptr inbounds nuw %struct.slurm_msg, ptr %3, i32 0, i32 16
  store i16 1005, ptr %8, align 4
  %9 = getelementptr inbounds nuw %struct.slurm_msg, ptr %3, i32 0, i32 13
  store ptr %4, ptr %9, align 8
  %10 = load ptr, ptr @working_cluster_rec, align 8
  %11 = icmp ne ptr %10, null
  br i1 %11, label %24, label %12

12:                                               ; preds = %1
  store i32 1, ptr %5, align 4
  br label %13

13:                                               ; preds = %20, %12
  %14 = load i32, ptr %5, align 4
  %15 = load i32, ptr getelementptr inbounds nuw (%struct.slurm_conf_t, ptr @slurm_conf, i32 0, i32 36), align 8
  %16 = icmp ult i32 %14, %15
  br i1 %16, label %17, label %23

17:                                               ; preds = %13
  %18 = load i32, ptr %5, align 4
  %19 = call i32 @_send_message_controller(i32 noundef %18, ptr noundef %3)
  br label %20

20:                                               ; preds = %17
  %21 = load i32, ptr %5, align 4
  %22 = add nsw i32 %21, 1
  store i32 %22, ptr %5, align 4
  br label %13, !llvm.loop !11

23:                                               ; preds = %13
  br label %24

24:                                               ; preds = %23, %1
  %25 = call i32 @_send_message_controller(i32 noundef 0, ptr noundef %3)
  call void @llvm.lifetime.end.p0(i64 4, ptr %5) #6
  call void @llvm.lifetime.end.p0(i64 2, ptr %4) #6
  call void @llvm.lifetime.end.p0(i64 424, ptr %3) #6
  ret i32 %25
}