; Function Attrs: nounwind uwtable
define dso_local range(i32 -1, 1803) i32 @slurm_shutdown(i16 noundef zeroext %0) local_unnamed_addr #0 {
  %2 = alloca %struct.slurm_msg, align 8
  %3 = alloca %struct.shutdown_msg, align 2
  call void @llvm.lifetime.start.p0(i64 424, ptr nonnull %2) #6
  call void @llvm.lifetime.start.p0(i64 2, ptr nonnull %3) #6
  call void @slurm_msg_t_init(ptr noundef nonnull %2) #6
  store i16 %0, ptr %3, align 2
  %4 = getelementptr inbounds nuw i8, ptr %2, i64 212
  store i16 1005, ptr %4, align 4
  %5 = getelementptr inbounds nuw i8, ptr %2, i64 200
  store ptr %3, ptr %5, align 8
  %6 = load ptr, ptr @working_cluster_rec, align 8
  %.not = icmp eq ptr %6, null
  %7 = load i32, ptr getelementptr inbounds nuw (i8, ptr @slurm_conf, i64 280), align 8
  %8 = icmp ugt i32 %7, 1
  %or.cond = select i1 %.not, i1 %8, i1 false
  br i1 %or.cond, label %.lr.ph, label %.loopexit

.lr.ph:                                           ; preds = %1, %.lr.ph
  %.04 = phi i32 [ %10, %.lr.ph ], [ 1, %1 ]
  %9 = call fastcc i32 @_send_message_controller(i32 noundef %.04, ptr noundef %2)
  %10 = add nuw nsw i32 %.04, 1
  %11 = load i32, ptr getelementptr inbounds nuw (i8, ptr @slurm_conf, i64 280), align 8
  %12 = icmp ult i32 %10, %11
  br i1 %12, label %.lr.ph, label %.loopexit, !llvm.loop !11

.loopexit:                                        ; preds = %.lr.ph, %1
  %13 = call fastcc i32 @_send_message_controller(i32 noundef 0, ptr noundef %2)
  call void @llvm.lifetime.end.p0(i64 2, ptr nonnull %3) #6
  call void @llvm.lifetime.end.p0(i64 424, ptr nonnull %2) #6
  ret i32 %13
}